target datalayout = "e-m:e-p270:32:32-p271:32:32-p272:64:64-i64:64-i128:128-f80:128-n8:16:32:64-S128"
target triple = "x86_64-pc-linux-gnu"

@proto_register_logcat_text.ett = internal global [1 x ptr] [ptr @ett_logcat], align 8
@.str.18 = private unnamed_addr constant [20 x i8] c"Android Logcat Text\00", align 1
@dissector_name = internal constant [12 x i8] c"Logcat Text\00", align 1
@.str.19 = private unnamed_addr constant [12 x i8] c"logcat_text\00", align 1
@proto_logcat_text = internal global i32 0, align 4
@.str.20 = private unnamed_addr constant [18 x i8] c"logcat_text_brief\00", align 1
@logcat_text_brief_handle = internal global ptr null, align 8
@.str.21 = private unnamed_addr constant [16 x i8] c"logcat_text_tag\00", align 1
@logcat_text_tag_handle = internal global ptr null, align 8
@.str.22 = private unnamed_addr constant [17 x i8] c"logcat_text_time\00", align 1
@logcat_text_time_handle = internal global ptr null, align 8
@.str.23 = private unnamed_addr constant [20 x i8] c"logcat_text_process\00", align 1
@logcat_text_process_handle = internal global ptr null, align 8
@.str.24 = private unnamed_addr constant [19 x i8] c"logcat_text_thread\00", align 1
@logcat_text_thread_handle = internal global ptr null, align 8
@.str.25 = private unnamed_addr constant [23 x i8] c"logcat_text_threadtime\00", align 1
@logcat_text_threadtime_handle = internal global ptr null, align 8
@.str.26 = private unnamed_addr constant [17 x i8] c"logcat_text_long\00", align 1
@logcat_text_long_handle = internal global ptr null, align 8
@.str.27 = private unnamed_addr constant [12 x i8] c"Logcat Text\00", align 1
@exported_pdu_tap = internal global i32 -1, align 4

; Function Attrs: null_pointer_is_valid sspstrong uwtable
define hidden void @proto_register_logcat_text() #0 {
  %1 = alloca ptr, align 8
  call void @llvm.lifetime.start.p0(i64 8, ptr %1) #7
  %2 = call i32 @proto_register_protocol(ptr noundef @.str.18, ptr noundef @dissector_name, ptr noundef @.str.19)
  store i32 %2, ptr @proto_logcat_text, align 4
  %3 = load i32, ptr @proto_logcat_text, align 4
  call void @proto_register_field_array(i32 noundef %3, ptr noundef @proto_register_logcat_text.hf, i32 noundef 6)
  call void @proto_register_subtree_array(ptr noundef @proto_register_logcat_text.ett, i32 noundef 1)
  %4 = load i32, ptr @proto_logcat_text, align 4
  %5 = call ptr @register_dissector(ptr noundef @.str.20, ptr noundef @dissect_logcat_text_brief, i32 noundef %4)
  store ptr %5, ptr @logcat_text_brief_handle, align 8
  %6 = load i32, ptr @proto_logcat_text, align 4
  %7 = call ptr @register_dissector(ptr noundef @.str.21, ptr noundef @dissect_logcat_text_tag, i32 noundef %6)
  store ptr %7, ptr @logcat_text_tag_handle, align 8
  %8 = load i32, ptr @proto_logcat_text, align 4
  %9 = call ptr @register_dissector(ptr noundef @.str.22, ptr noundef @dissect_logcat_text_time, i32 noundef %8)
  store ptr %9, ptr @logcat_text_time_handle, align 8
  %10 = load i32, ptr @proto_logcat_text, align 4
  %11 = call ptr @register_dissector(ptr noundef @.str.23, ptr noundef @dissect_logcat_text_process, i32 noundef %10)
  store ptr %11, ptr @logcat_text_process_handle, align 8
  %12 = load i32, ptr @proto_logcat_text, align 4
  %13 = call ptr @register_dissector(ptr noundef @.str.24, ptr noundef @dissect_logcat_text_thread, i32 noundef %12)
  store ptr %13, ptr @logcat_text_thread_handle, align 8
  %14 = load i32, ptr @proto_logcat_text, align 4
  %15 = call ptr @register_dissector(ptr noundef @.str.25, ptr noundef @dissect_logcat_text_threadtime, i32 noundef %14)
  store ptr %15, ptr @logcat_text_threadtime_handle, align 8
  %16 = load i32, ptr @proto_logcat_text, align 4
  %17 = call ptr @register_dissector(ptr noundef @.str.26, ptr noundef @dissect_logcat_text_long, i32 noundef %16)
  store ptr %17, ptr @logcat_text_long_handle, align 8
  call void @register_init_routine(ptr noundef @logcat_text_init)
  call void @register_cleanup_routine(ptr noundef @logcat_text_cleanup)
  %18 = load i32, ptr @proto_logcat_text, align 4
  %19 = call ptr @expert_register_protocol(i32 noundef %18)
  store ptr %19, ptr %1, align 8
  %20 = load ptr, ptr %1, align 8
  call void @expert_register_field_array(ptr noundef %20, ptr noundef @proto_register_logcat_text.ei, i32 noundef 2)
  %21 = call i32 @register_export_pdu_tap(ptr noundef @.str.27)
  store i32 %21, ptr @exported_pdu_tap, align 4
  call void @llvm.lifetime.end.p0(i64 8, ptr %1) #7
  ret void
}