; Function Attrs: null_pointer_is_valid sspstrong uwtable
define hidden void @proto_register_logcat_text() local_unnamed_addr #0 {
  %1 = tail call i32 @proto_register_protocol(ptr noundef nonnull @.str.18, ptr noundef nonnull @.str.27, ptr noundef nonnull @.str.19)
  store i32 %1, ptr @proto_logcat_text, align 4
  tail call void @proto_register_field_array(i32 noundef %1, ptr noundef nonnull @proto_register_logcat_text.hf, i32 noundef 6)
  tail call void @proto_register_subtree_array(ptr noundef nonnull @proto_register_logcat_text.ett, i32 noundef 1)
  %2 = load i32, ptr @proto_logcat_text, align 4
  %3 = tail call ptr @register_dissector(ptr noundef nonnull @.str.20, ptr noundef nonnull @dissect_logcat_text_brief, i32 noundef %2)
  store ptr %3, ptr @logcat_text_brief_handle, align 8
  %4 = load i32, ptr @proto_logcat_text, align 4
  %5 = tail call ptr @register_dissector(ptr noundef nonnull @.str.21, ptr noundef nonnull @dissect_logcat_text_tag, i32 noundef %4)
  store ptr %5, ptr @logcat_text_tag_handle, align 8
  %6 = load i32, ptr @proto_logcat_text, align 4
  %7 = tail call ptr @register_dissector(ptr noundef nonnull @.str.22, ptr noundef nonnull @dissect_logcat_text_time, i32 noundef %6)
  store ptr %7, ptr @logcat_text_time_handle, align 8
  %8 = load i32, ptr @proto_logcat_text, align 4
  %9 = tail call ptr @register_dissector(ptr noundef nonnull @.str.23, ptr noundef nonnull @dissect_logcat_text_process, i32 noundef %8)
  store ptr %9, ptr @logcat_text_process_handle, align 8
  %10 = load i32, ptr @proto_logcat_text, align 4
  %11 = tail call ptr @register_dissector(ptr noundef nonnull @.str.24, ptr noundef nonnull @dissect_logcat_text_thread, i32 noundef %10)
  store ptr %11, ptr @logcat_text_thread_handle, align 8
  %12 = load i32, ptr @proto_logcat_text, align 4
  %13 = tail call ptr @register_dissector(ptr noundef nonnull @.str.25, ptr noundef nonnull @dissect_logcat_text_threadtime, i32 noundef %12)
  store ptr %13, ptr @logcat_text_threadtime_handle, align 8
  %14 = load i32, ptr @proto_logcat_text, align 4
  %15 = tail call ptr @register_dissector(ptr noundef nonnull @.str.26, ptr noundef nonnull @dissect_logcat_text_long, i32 noundef %14)
  store ptr %15, ptr @logcat_text_long_handle, align 8
  tail call void @register_init_routine(ptr noundef nonnull @logcat_text_init)
  tail call void @register_cleanup_routine(ptr noundef nonnull @logcat_text_cleanup)
  %16 = load i32, ptr @proto_logcat_text, align 4
  %17 = tail call ptr @expert_register_protocol(i32 noundef %16)
  tail call void @expert_register_field_array(ptr noundef %17, ptr noundef nonnull @proto_register_logcat_text.ei, i32 noundef 2)
  %18 = tail call i32 @register_export_pdu_tap(ptr noundef nonnull @.str.27)
  store i32 %18, ptr @exported_pdu_tap, align 4
  ret void
}